; Function Attrs: mustprogress nounwind uwtable
define hidden void @_ZN7oopDesc23release_short_field_putEis(ptr noundef nonnull align 8 dereferenceable(16) %0, i32 noundef %1, i16 noundef signext %2) local_unnamed_addr #0 align 2 {
  %4 = ptrtoint ptr %0 to i64
  %5 = sext i32 %1 to i64
  %6 = add nsw i64 %5, %4
  %7 = inttoptr i64 %6 to ptr
  tail call void asm sideeffect "", "~{memory},~{dirflag},~{fpsr},~{flags}"() #11, !srcloc !6
  store volatile i16 %2, ptr %7, align 2
  ret void
}